(lp0
(dp1
S'JUDGE'
p2
S''
p3
sS'SCORES'
p4
(lp5
(I61
I2
tp6
a(I564
I1
tp7
a(NI0
tp8
a(I1190
I0
tp9
asS'TEAM'
p10
S'$\\alpha$'
p11
sa(dp12
g2
g3
sg4
(lp13
(I52
I2
tp14
a(I577
I0
tp15
a(I433
I2
tp16
a(I1195
I0
tp17
asg10
S'$\\beta$'
p18
sa(dp19
g2
g3
sg4
(lp20
(I56
I2
tp21
a(I720
I1
tp22
a(I1150
I2
tp23
a(I1035
I0
tp24
asg10
S'$\\gamma$'
p25
sa(dp26
g2
g3
sg4
(lp27
(I75
I2
tp28
a(I516
I2
tp29
a(I176
I2
tp30
a(I331
I0
tp31
asg10
S'$\\delta$'
p32
sa(dp33
g2
g3
sg4
(lp34
(I91
I2
tp35
a(I1120
I0
tp36
a(I1140
I0
tp37
a(NI0
tp38
asg10
S'$\\varepsilon$'
p39
sa(dp40
g2
g3
sg4
(lp41
(I76
I2
tp42
a(NI0
tp43
a(NI0
tp44
a(NI0
tp45
asg10
S'$\\theta$'
p46
sa(dp47
g2
g3
sg4
(lp48
(I46
I2
tp49
a(I258
I1
tp50
a(I141
I2
tp51
a(I532
I1
tp52
asg10
S'$\\iota$'
p53
sa(dp54
g2
g3
sg4
(lp55
(I189
I2
tp56
a(I1194
I0
tp57
a(I298
I2
tp58
a(I934
I0
tp59
asg10
S'$\\kappa$'
p60
sa(dp61
g2
g3
sg4
(lp62
(I219
I2
tp63
a(I160
I2
tp64
a(I640
I2
tp65
a(I499
I0
tp66
asg10
S'$\\lambda$'
p67
sa(dp68
g2
g3
sg4
(lp69
(I601
I2
tp70
a(I482
I1
tp71
a(I900
I2
tp72
a(I1189
I0
tp73
asg10
S'$\\ta$'
p74
sa(dp75
g2
g3
sg4
(lp76
(I185
I2
tp77
a(I170
I2
tp78
a(I1040
I2
tp79
a(I1170
I0
tp80
asg10
S'$\\xi$'
p81
sa(dp82
g2
g3
sg4
(lp83
(I73
I2
tp84
a(I1041
I1
tp85
a(I1126
I0
tp86
a(NI0
tp87
asg10
S'$o$'
p88
sa(dp89
g2
g3
sg4
(lp90
(I53
I2
tp91
a(I903
I1
tp92
a(I473
I2
tp93
a(NI0
tp94
asg10
S'$\\chi$'
p95
sa(dp96
g2
g3
sg4
(lp97
(I25
I2
tp98
a(I158
I1
tp99
a(I251
I1
tp100
a(I670
I0
tp101
asg10
S'$\\rho$'
p102
sa(dp103
g2
g3
sg4
(lp104
(I101
I2
tp105
a(I400
I2
tp106
a(I1143
I2
tp107
a(I811
I0
tp108
asg10
S'$\\sigma$'
p109
sa(dp110
g2
g3
sg4
(lp111
(I130
I2
tp112
a(I1200
I0
tp113
a(I1030
I2
tp114
a(NI0
tp115
asg10
S'$\\psi$'
p116
sa(dp117
g2
g3
sg4
(lp118
(I78
I2
tp119
a(I660
I1
tp120
a(I1140
I2
tp121
a(NI0
tp122
asg10
S'$\\varphi$'
p123
sa(dp124
g2
g3
sg4
(lp125
(I61
I2
tp126
a(I265
I0
tp127
a(I260
I2
tp128
a(NI0
tp129
asg10
S'$\\omega$'
p130
sa.